target datalayout = "e-m:e-p270:32:32-p271:32:32-p272:64:64-i64:64-i128:128-f80:128-n8:16:32:64-S128"
target triple = "x86_64-pc-linux-gnu"

%struct.b2SimplexCache = type { i16, [3 x i8], [3 x i8] }
%struct.b2ContactArray = type { ptr, i32, i32 }
%struct.b2ContactSimArray = type { ptr, i32, i32 }
%struct.b2Manifold = type { %struct.b2Vec2, float, [2 x %struct.b2ManifoldPoint], i32 }
%struct.b2Vec2 = type { float, float }
%struct.b2ManifoldPoint = type { %struct.b2Vec2, %struct.b2Vec2, %struct.b2Vec2, float, float, float, float, float, i16, i8 }
%struct.b2Contact = type { i32, i32, i32, [2 x %struct.b2ContactEdge], i32, i32, i32, i32, i32, i32, i32, i8 }
%struct.b2ContactEdge = type { i32, i32, i32 }
%struct.b2World = type { %struct.b2ArenaAllocator, %struct.b2BroadPhase, %struct.b2ConstraintGraph, %struct.b2IdPool, %struct.b2BodyArray, %struct.b2IdPool, %struct.b2SolverSetArray, %struct.b2IdPool, %struct.b2JointArray, %struct.b2IdPool, %struct.b2ContactArray, %struct.b2IdPool, %struct.b2IslandArray, %struct.b2IdPool, %struct.b2IdPool, %struct.b2ShapeArray, %struct.b2ChainShapeArray, %struct.b2SensorArray, %struct.b2TaskContextArray, %struct.b2SensorTaskContextArray, %struct.b2BodyMoveEventArray, %struct.b2SensorBeginTouchEventArray, %struct.b2ContactBeginTouchEventArray, [2 x %struct.b2SensorEndTouchEventArray], [2 x %struct.b2ContactEndTouchEventArray], i32, %struct.b2ContactHitEventArray, %struct.b2BitSet, %struct.b2BitSet, %struct.b2BitSet, i64, i32, %struct.b2Vec2, float, float, float, float, float, float, float, float, ptr, ptr, i16, %struct.b2Profile, ptr, ptr, ptr, ptr, i32, ptr, ptr, ptr, ptr, ptr, float, i32, i32, i16, i8, i8, i8, i8, i8, i8 }
%struct.b2ArenaAllocator = type { ptr, i32, i32, i32, i32, %struct.b2ArenaEntryArray }
%struct.b2ArenaEntryArray = type { ptr, i32, i32 }
%struct.b2BroadPhase = type { [3 x %struct.b2DynamicTree], i32, %struct.b2HashSet, %struct.b2IntArray, ptr, ptr, i32, %struct.b2AtomicInt, %struct.b2HashSet }
%struct.b2DynamicTree = type { ptr, i32, i32, i32, i32, i32, ptr, ptr, ptr, ptr, i32 }
%struct.b2IntArray = type { ptr, i32, i32 }
%struct.b2AtomicInt = type { i32 }
%struct.b2HashSet = type { ptr, i32, i32 }
%struct.b2ConstraintGraph = type { [12 x %struct.b2GraphColor] }
%struct.b2GraphColor = type { %struct.b2BitSet, %struct.b2ContactSimArray, %struct.b2JointSimArray, %union.anon.0 }
%struct.b2JointSimArray = type { ptr, i32, i32 }
%union.anon.0 = type { ptr }
%struct.b2BodyArray = type { ptr, i32, i32 }
%struct.b2SolverSetArray = type { ptr, i32, i32 }
%struct.b2JointArray = type { ptr, i32, i32 }
%struct.b2IslandArray = type { ptr, i32, i32 }
%struct.b2IdPool = type { %struct.b2IntArray, i32 }
%struct.b2ShapeArray = type { ptr, i32, i32 }
%struct.b2ChainShapeArray = type { ptr, i32, i32 }
%struct.b2SensorArray = type { ptr, i32, i32 }
%struct.b2TaskContextArray = type { ptr, i32, i32 }
%struct.b2SensorTaskContextArray = type { ptr, i32, i32 }
%struct.b2BodyMoveEventArray = type { ptr, i32, i32 }
%struct.b2SensorBeginTouchEventArray = type { ptr, i32, i32 }
%struct.b2ContactBeginTouchEventArray = type { ptr, i32, i32 }
%struct.b2SensorEndTouchEventArray = type { ptr, i32, i32 }
%struct.b2ContactEndTouchEventArray = type { ptr, i32, i32 }
%struct.b2ContactHitEventArray = type { ptr, i32, i32 }
%struct.b2BitSet = type { ptr, i32, i32 }
%struct.b2Profile = type { float, float, float, float, float, float, float, float, float, float, float, float, float, float, float, float, float, float, float, float, float, float }
%struct.b2SolverSet = type { %struct.b2BodySimArray, %struct.b2BodyStateArray, %struct.b2JointSimArray, %struct.b2ContactSimArray, %struct.b2IslandSimArray, i32 }
%struct.b2BodySimArray = type { ptr, i32, i32 }
%struct.b2BodyStateArray = type { ptr, i32, i32 }
%struct.b2IslandSimArray = type { ptr, i32, i32 }
%struct.b2ContactSim = type { i32, i32, i32, i32, i32, float, float, float, float, %struct.b2Manifold, float, float, float, float, i32, %struct.b2SimplexCache }

; Function Attrs: inlinehint nounwind uwtable
define internal ptr @b2SolverSetArray_Get(ptr noundef %0, i32 noundef %1) #5 {
  %3 = alloca ptr, align 8
  %4 = alloca i32, align 4
  store ptr %0, ptr %3, align 8, !tbaa !12
  store i32 %1, ptr %4, align 4, !tbaa !3
  %5 = load ptr, ptr %3, align 8, !tbaa !12
  %6 = getelementptr inbounds nuw %struct.b2SolverSetArray, ptr %5, i32 0, i32 0
  %7 = load ptr, ptr %6, align 8, !tbaa !150
  %8 = load i32, ptr %4, align 4, !tbaa !3
  %9 = sext i32 %8 to i64
  %10 = getelementptr inbounds %struct.b2SolverSet, ptr %7, i64 %9
  ret ptr %10
}

; Function Attrs: inlinehint nounwind uwtable
define internal ptr @b2ContactSimArray_Get(ptr noundef %0, i32 noundef %1) #5 {
  %3 = alloca ptr, align 8
  %4 = alloca i32, align 4
  store ptr %0, ptr %3, align 8, !tbaa !12
  store i32 %1, ptr %4, align 4, !tbaa !3
  %5 = load ptr, ptr %3, align 8, !tbaa !12
  %6 = getelementptr inbounds nuw %struct.b2ContactSimArray, ptr %5, i32 0, i32 0
  %7 = load ptr, ptr %6, align 8, !tbaa !14
  %8 = load i32, ptr %4, align 4, !tbaa !3
  %9 = sext i32 %8 to i64
  %10 = getelementptr inbounds %struct.b2ContactSim, ptr %7, i64 %9
  ret ptr %10
}

; Function Attrs: nounwind uwtable
define hidden ptr @b2GetContactSim(ptr noundef %0, ptr noundef %1) #0 {
  %3 = alloca ptr, align 8
  %4 = alloca ptr, align 8
  %5 = alloca ptr, align 8
  %6 = alloca ptr, align 8
  %7 = alloca ptr, align 8
  store ptr %0, ptr %4, align 8, !tbaa !30
  store ptr %1, ptr %5, align 8, !tbaa !90
  %8 = load ptr, ptr %5, align 8, !tbaa !90
  %9 = getelementptr inbounds nuw %struct.b2Contact, ptr %8, i32 0, i32 0
  %10 = load i32, ptr %9, align 4, !tbaa !93
  %11 = icmp eq i32 %10, 2
  br i1 %11, label %12, label %33

12:                                               ; preds = %2
  %13 = load ptr, ptr %5, align 8, !tbaa !90
  %14 = getelementptr inbounds nuw %struct.b2Contact, ptr %13, i32 0, i32 1
  %15 = load i32, ptr %14, align 4, !tbaa !94
  %16 = icmp ne i32 %15, -1
  br i1 %16, label %17, label %33

17:                                               ; preds = %12
  call void @llvm.lifetime.start.p0(i64 8, ptr %6) #8
  %18 = load ptr, ptr %4, align 8, !tbaa !30
  %19 = getelementptr inbounds nuw %struct.b2World, ptr %18, i32 0, i32 2
  %20 = getelementptr inbounds nuw %struct.b2ConstraintGraph, ptr %19, i32 0, i32 0
  %21 = getelementptr inbounds [12 x %struct.b2GraphColor], ptr %20, i64 0, i64 0
  %22 = load ptr, ptr %5, align 8, !tbaa !90
  %23 = getelementptr inbounds nuw %struct.b2Contact, ptr %22, i32 0, i32 1
  %24 = load i32, ptr %23, align 4, !tbaa !94
  %25 = sext i32 %24 to i64
  %26 = getelementptr inbounds %struct.b2GraphColor, ptr %21, i64 %25
  store ptr %26, ptr %6, align 8, !tbaa !171
  %27 = load ptr, ptr %6, align 8, !tbaa !171
  %28 = getelementptr inbounds nuw %struct.b2GraphColor, ptr %27, i32 0, i32 1
  %29 = load ptr, ptr %5, align 8, !tbaa !90
  %30 = getelementptr inbounds nuw %struct.b2Contact, ptr %29, i32 0, i32 2
  %31 = load i32, ptr %30, align 4, !tbaa !105
  %32 = call ptr @b2ContactSimArray_Get(ptr noundef %28, i32 noundef %31)
  store ptr %32, ptr %3, align 8
  call void @llvm.lifetime.end.p0(i64 8, ptr %6) #8
  br label %46

33:                                               ; preds = %12, %2
  call void @llvm.lifetime.start.p0(i64 8, ptr %7) #8
  %34 = load ptr, ptr %4, align 8, !tbaa !30
  %35 = getelementptr inbounds nuw %struct.b2World, ptr %34, i32 0, i32 6
  %36 = load ptr, ptr %5, align 8, !tbaa !90
  %37 = getelementptr inbounds nuw %struct.b2Contact, ptr %36, i32 0, i32 0
  %38 = load i32, ptr %37, align 4, !tbaa !93
  %39 = call ptr @b2SolverSetArray_Get(ptr noundef %35, i32 noundef %38)
  store ptr %39, ptr %7, align 8, !tbaa !45
  %40 = load ptr, ptr %7, align 8, !tbaa !45
  %41 = getelementptr inbounds nuw %struct.b2SolverSet, ptr %40, i32 0, i32 3
  %42 = load ptr, ptr %5, align 8, !tbaa !90
  %43 = getelementptr inbounds nuw %struct.b2Contact, ptr %42, i32 0, i32 2
  %44 = load i32, ptr %43, align 4, !tbaa !105
  %45 = call ptr @b2ContactSimArray_Get(ptr noundef %41, i32 noundef %44)
  store ptr %45, ptr %3, align 8
  call void @llvm.lifetime.end.p0(i64 8, ptr %7) #8
  br label %46

46:                                               ; preds = %33, %17
  %47 = load ptr, ptr %3, align 8
  ret ptr %47
}