; Function Attrs: mustprogress nofree norecurse nosync nounwind willreturn memory(read, inaccessiblemem: none) uwtable
define hidden ptr @b2GetContactSim(ptr noundef readonly captures(none) %0, ptr noundef readonly captures(none) %1) local_unnamed_addr #7 {
  %3 = load i32, ptr %1, align 4, !tbaa !83
  %4 = icmp eq i32 %3, 2
  br i1 %4, label %5, label %12

5:                                                ; preds = %2
  %6 = getelementptr inbounds nuw i8, ptr %1, i64 4
  %7 = load i32, ptr %6, align 4, !tbaa !84
  %.not = icmp eq i32 %7, -1
  br i1 %.not, label %12, label %8

8:                                                ; preds = %5
  %9 = sext i32 %7 to i64
  %.idx = mul nsw i64 %9, 56
  %10 = getelementptr i8, ptr %0, i64 352
  %11 = getelementptr i8, ptr %10, i64 %.idx
  br label %16

12:                                               ; preds = %5, %2
  %13 = getelementptr inbounds nuw i8, ptr %0, i64 1072
  %.val = load ptr, ptr %13, align 8, !tbaa !35
  %14 = sext i32 %3 to i64
  %15 = getelementptr inbounds %struct.b2SolverSet, ptr %.val, i64 %14, i32 3
  br label %16

16:                                               ; preds = %12, %8
  %.val13.sink.in = phi ptr [ %15, %12 ], [ %11, %8 ]
  %.val13.sink = load ptr, ptr %.val13.sink.in, align 8, !tbaa !14
  %.sink14.in = getelementptr inbounds nuw i8, ptr %1, i64 8
  %.sink14 = load i32, ptr %.sink14.in, align 4, !tbaa !95
  %17 = sext i32 %.sink14 to i64
  %18 = getelementptr inbounds %struct.b2ContactSim, ptr %.val13.sink, i64 %17
  ret ptr %18
}